target datalayout = "e-m:e-p270:32:32-p271:32:32-p272:64:64-i64:64-i128:128-f80:128-n8:16:32:64-S128"
target triple = "x86_64-pc-linux-gnu"

%struct.Vec_Int_t_ = type { i32, i32, ptr }

@.str.6 = private unnamed_addr constant [8 x i8] c"%3d :  \00", align 1
@.str.7 = private unnamed_addr constant [3 x i8] c"%d\00", align 1
@.str.8 = private unnamed_addr constant [2 x i8] c" \00", align 1
@.str.9 = private unnamed_addr constant [13 x i8] c"  %d <-> %d\0A\00", align 1

; Function Attrs: inlinehint nounwind uwtable
define internal void @Vec_IntFree(ptr noundef %0) #3 {
  %2 = alloca ptr, align 8
  store ptr %0, ptr %2, align 8, !tbaa !19
  %3 = load ptr, ptr %2, align 8, !tbaa !19
  %4 = getelementptr inbounds nuw %struct.Vec_Int_t_, ptr %3, i32 0, i32 2
  %5 = load ptr, ptr %4, align 8, !tbaa !29
  %6 = icmp ne ptr %5, null
  br i1 %6, label %7, label %13

7:                                                ; preds = %1
  %8 = load ptr, ptr %2, align 8, !tbaa !19
  %9 = getelementptr inbounds nuw %struct.Vec_Int_t_, ptr %8, i32 0, i32 2
  %10 = load ptr, ptr %9, align 8, !tbaa !29
  call void @free(ptr noundef %10) #12
  %11 = load ptr, ptr %2, align 8, !tbaa !19
  %12 = getelementptr inbounds nuw %struct.Vec_Int_t_, ptr %11, i32 0, i32 2
  store ptr null, ptr %12, align 8, !tbaa !29
  br label %14

13:                                               ; preds = %1
  br label %14

14:                                               ; preds = %13, %7
  %15 = load ptr, ptr %2, align 8, !tbaa !19
  %16 = icmp ne ptr %15, null
  br i1 %16, label %17, label %19

17:                                               ; preds = %14
  %18 = load ptr, ptr %2, align 8, !tbaa !19
  call void @free(ptr noundef %18) #12
  store ptr null, ptr %2, align 8, !tbaa !19
  br label %20

19:                                               ; preds = %14
  br label %20

20:                                               ; preds = %19, %17
  ret void
}

; Function Attrs: nounwind uwtable
define void @Abc_GenChasePrint(i32 noundef %0, ptr noundef %1, i32 noundef %2, i32 noundef %3, i32 noundef %4, i32 noundef %5) #0 {
  %7 = alloca i32, align 4
  %8 = alloca ptr, align 8
  %9 = alloca i32, align 4
  %10 = alloca i32, align 4
  %11 = alloca i32, align 4
  %12 = alloca i32, align 4
  %13 = alloca i32, align 4
  store i32 %0, ptr %7, align 4, !tbaa !8
  store ptr %1, ptr %8, align 8, !tbaa !17
  store i32 %2, ptr %9, align 4, !tbaa !8
  store i32 %3, ptr %10, align 4, !tbaa !8
  store i32 %4, ptr %11, align 4, !tbaa !8
  store i32 %5, ptr %12, align 4, !tbaa !8
  call void @llvm.lifetime.start.p0(i64 4, ptr %13) #12
  %14 = load i32, ptr %7, align 4, !tbaa !8
  %15 = add nsw i32 %14, 1
  store i32 %15, ptr %7, align 4, !tbaa !8
  %16 = call i32 (ptr, ...) @printf(ptr noundef @.str.6, i32 noundef %14)
  %17 = load i32, ptr %9, align 4, !tbaa !8
  %18 = sub nsw i32 %17, 1
  store i32 %18, ptr %13, align 4, !tbaa !8
  br label %19

19:                                               ; preds = %30, %6
  %20 = load i32, ptr %13, align 4, !tbaa !8
  %21 = load i32, ptr %10, align 4, !tbaa !8
  %22 = icmp sge i32 %20, %21
  br i1 %22, label %23, label %33

23:                                               ; preds = %19
  %24 = load ptr, ptr %8, align 8, !tbaa !17
  %25 = load i32, ptr %13, align 4, !tbaa !8
  %26 = sext i32 %25 to i64
  %27 = getelementptr inbounds i32, ptr %24, i64 %26
  %28 = load i32, ptr %27, align 4, !tbaa !8
  %29 = call i32 (ptr, ...) @printf(ptr noundef @.str.7, i32 noundef %28)
  br label %30

30:                                               ; preds = %23
  %31 = load i32, ptr %13, align 4, !tbaa !8
  %32 = add nsw i32 %31, -1
  store i32 %32, ptr %13, align 4, !tbaa !8
  br label %19, !llvm.loop !81

33:                                               ; preds = %19
  %34 = call i32 (ptr, ...) @printf(ptr noundef @.str.8)
  %35 = load i32, ptr %10, align 4, !tbaa !8
  %36 = sub nsw i32 %35, 1
  store i32 %36, ptr %13, align 4, !tbaa !8
  br label %37

37:                                               ; preds = %47, %33
  %38 = load i32, ptr %13, align 4, !tbaa !8
  %39 = icmp sge i32 %38, 0
  br i1 %39, label %40, label %50

40:                                               ; preds = %37
  %41 = load ptr, ptr %8, align 8, !tbaa !17
  %42 = load i32, ptr %13, align 4, !tbaa !8
  %43 = sext i32 %42 to i64
  %44 = getelementptr inbounds i32, ptr %41, i64 %43
  %45 = load i32, ptr %44, align 4, !tbaa !8
  %46 = call i32 (ptr, ...) @printf(ptr noundef @.str.7, i32 noundef %45)
  br label %47

47:                                               ; preds = %40
  %48 = load i32, ptr %13, align 4, !tbaa !8
  %49 = add nsw i32 %48, -1
  store i32 %49, ptr %13, align 4, !tbaa !8
  br label %37, !llvm.loop !82

50:                                               ; preds = %37
  %51 = load i32, ptr %11, align 4, !tbaa !8
  %52 = load i32, ptr %12, align 4, !tbaa !8
  %53 = call i32 (ptr, ...) @printf(ptr noundef @.str.9, i32 noundef %51, i32 noundef %52)
  call void @llvm.lifetime.end.p0(i64 4, ptr %13) #12
  ret void
}

; Function Attrs: inlinehint nounwind uwtable
define internal i32 @Vec_IntEntry(ptr noundef %0, i32 noundef %1) #3 {
  %3 = alloca ptr, align 8
  %4 = alloca i32, align 4
  store ptr %0, ptr %3, align 8, !tbaa !19
  store i32 %1, ptr %4, align 4, !tbaa !8
  %5 = load ptr, ptr %3, align 8, !tbaa !19
  %6 = getelementptr inbounds nuw %struct.Vec_Int_t_, ptr %5, i32 0, i32 2
  %7 = load ptr, ptr %6, align 8, !tbaa !29
  %8 = load i32, ptr %4, align 4, !tbaa !8
  %9 = sext i32 %8 to i64
  %10 = getelementptr inbounds i32, ptr %7, i64 %9
  %11 = load i32, ptr %10, align 4, !tbaa !8
  ret i32 %11
}

; Function Attrs: inlinehint nounwind uwtable
define internal i32 @Vec_IntSize(ptr noundef %0) #3 {
  %2 = alloca ptr, align 8
  store ptr %0, ptr %2, align 8, !tbaa !19
  %3 = load ptr, ptr %2, align 8, !tbaa !19
  %4 = getelementptr inbounds nuw %struct.Vec_Int_t_, ptr %3, i32 0, i32 1
  %5 = load i32, ptr %4, align 4, !tbaa !26
  ret i32 %5
}

; Function Attrs: nounwind uwtable
define void @Abc_GenChaseTest() #0 {
  %1 = alloca i32, align 4
  %2 = alloca i32, align 4
  %3 = alloca ptr, align 8
  %4 = alloca i32, align 4
  %5 = alloca i32, align 4
  %6 = alloca i32, align 4
  %7 = alloca [32 x i32], align 16
  %8 = alloca [32 x i32], align 16
  %9 = alloca i32, align 4
  %10 = alloca i32, align 4
  %11 = alloca i32, align 4
  call void @llvm.lifetime.start.p0(i64 4, ptr %1) #12
  store i32 4, ptr %1, align 4, !tbaa !8
  call void @llvm.lifetime.start.p0(i64 4, ptr %2) #12
  store i32 2, ptr %2, align 4, !tbaa !8
  call void @llvm.lifetime.start.p0(i64 8, ptr %3) #12
  %12 = load i32, ptr %1, align 4, !tbaa !8
  %13 = load i32, ptr %1, align 4, !tbaa !8
  %14 = load i32, ptr %2, align 4, !tbaa !8
  %15 = sub nsw i32 %13, %14
  %16 = call ptr @Abc_GenChasePairs(i32 noundef %12, i32 noundef %15)
  store ptr %16, ptr %3, align 8, !tbaa !19
  call void @llvm.lifetime.start.p0(i64 4, ptr %4) #12
  call void @llvm.lifetime.start.p0(i64 4, ptr %5) #12
  call void @llvm.lifetime.start.p0(i64 4, ptr %6) #12
  call void @llvm.lifetime.start.p0(i64 128, ptr %7) #12
  call void @llvm.lifetime.start.p0(i64 128, ptr %8) #12
  store i32 0, ptr %4, align 4, !tbaa !8
  br label %17

17:                                               ; preds = %29, %0
  %18 = load i32, ptr %4, align 4, !tbaa !8
  %19 = load i32, ptr %1, align 4, !tbaa !8
  %20 = icmp slt i32 %18, %19
  br i1 %20, label %21, label %32

21:                                               ; preds = %17
  %22 = load i32, ptr %4, align 4, !tbaa !8
  %23 = load i32, ptr %4, align 4, !tbaa !8
  %24 = sext i32 %23 to i64
  %25 = getelementptr inbounds [32 x i32], ptr %8, i64 0, i64 %24
  store i32 %22, ptr %25, align 4, !tbaa !8
  %26 = load i32, ptr %4, align 4, !tbaa !8
  %27 = sext i32 %26 to i64
  %28 = getelementptr inbounds [32 x i32], ptr %7, i64 0, i64 %27
  store i32 %22, ptr %28, align 4, !tbaa !8
  br label %29

29:                                               ; preds = %21
  %30 = load i32, ptr %4, align 4, !tbaa !8
  %31 = add nsw i32 %30, 1
  store i32 %31, ptr %4, align 4, !tbaa !8
  br label %17, !llvm.loop !83

32:                                               ; preds = %17
  call void @llvm.lifetime.start.p0(i64 4, ptr %9) #12
  store i32 0, ptr %9, align 4, !tbaa !8
  store i32 0, ptr %4, align 4, !tbaa !8
  br label %33

33:                                               ; preds = %107, %32
  %34 = load i32, ptr %4, align 4, !tbaa !8
  %35 = add nsw i32 %34, 1
  %36 = load ptr, ptr %3, align 8, !tbaa !19
  %37 = call i32 @Vec_IntSize(ptr noundef %36)
  %38 = icmp slt i32 %35, %37
  br i1 %38, label %39, label %48

39:                                               ; preds = %33
  %40 = load ptr, ptr %3, align 8, !tbaa !19
  %41 = load i32, ptr %4, align 4, !tbaa !8
  %42 = call i32 @Vec_IntEntry(ptr noundef %40, i32 noundef %41)
  store i32 %42, ptr %5, align 4, !tbaa !8
  br i1 true, label %43, label %48

43:                                               ; preds = %39
  %44 = load ptr, ptr %3, align 8, !tbaa !19
  %45 = load i32, ptr %4, align 4, !tbaa !8
  %46 = add nsw i32 %45, 1
  %47 = call i32 @Vec_IntEntry(ptr noundef %44, i32 noundef %46)
  store i32 %47, ptr %6, align 4, !tbaa !8
  br label %48

48:                                               ; preds = %43, %39, %33
  %49 = phi i1 [ false, %39 ], [ false, %33 ], [ true, %43 ]
  br i1 %49, label %50, label %110

50:                                               ; preds = %48
  %51 = load i32, ptr %9, align 4, !tbaa !8
  %52 = add nsw i32 %51, 1
  store i32 %52, ptr %9, align 4, !tbaa !8
  %53 = getelementptr inbounds [32 x i32], ptr %7, i64 0, i64 0
  %54 = load i32, ptr %1, align 4, !tbaa !8
  %55 = load i32, ptr %2, align 4, !tbaa !8
  %56 = load i32, ptr %5, align 4, !tbaa !8
  %57 = load i32, ptr %6, align 4, !tbaa !8
  call void @Abc_GenChasePrint(i32 noundef %51, ptr noundef %53, i32 noundef %54, i32 noundef %55, i32 noundef %56, i32 noundef %57)
  call void @llvm.lifetime.start.p0(i64 4, ptr %10) #12
  %58 = load i32, ptr %5, align 4, !tbaa !8
  %59 = sext i32 %58 to i64
  %60 = getelementptr inbounds [32 x i32], ptr %8, i64 0, i64 %59
  %61 = load i32, ptr %60, align 4, !tbaa !8
  store i32 %61, ptr %10, align 4, !tbaa !8
  call void @llvm.lifetime.start.p0(i64 4, ptr %11) #12
  %62 = load i32, ptr %6, align 4, !tbaa !8
  %63 = sext i32 %62 to i64
  %64 = getelementptr inbounds [32 x i32], ptr %8, i64 0, i64 %63
  %65 = load i32, ptr %64, align 4, !tbaa !8
  store i32 %65, ptr %11, align 4, !tbaa !8
  %66 = load i32, ptr %11, align 4, !tbaa !8
  %67 = load i32, ptr %10, align 4, !tbaa !8
  %68 = sext i32 %67 to i64
  %69 = getelementptr inbounds [32 x i32], ptr %7, i64 0, i64 %68
  %70 = load i32, ptr %69, align 4, !tbaa !8
  %71 = sext i32 %70 to i64
  %72 = getelementptr inbounds [32 x i32], ptr %8, i64 0, i64 %71
  store i32 %66, ptr %72, align 4, !tbaa !8
  %73 = load i32, ptr %10, align 4, !tbaa !8
  %74 = load i32, ptr %11, align 4, !tbaa !8
  %75 = sext i32 %74 to i64
  %76 = getelementptr inbounds [32 x i32], ptr %7, i64 0, i64 %75
  %77 = load i32, ptr %76, align 4, !tbaa !8
  %78 = sext i32 %77 to i64
  %79 = getelementptr inbounds [32 x i32], ptr %8, i64 0, i64 %78
  store i32 %73, ptr %79, align 4, !tbaa !8
  %80 = load i32, ptr %11, align 4, !tbaa !8
  %81 = sext i32 %80 to i64
  %82 = getelementptr inbounds [32 x i32], ptr %7, i64 0, i64 %81
  %83 = load i32, ptr %82, align 4, !tbaa !8
  %84 = load i32, ptr %10, align 4, !tbaa !8
  %85 = sext i32 %84 to i64
  %86 = getelementptr inbounds [32 x i32], ptr %7, i64 0, i64 %85
  %87 = load i32, ptr %86, align 4, !tbaa !8
  %88 = xor i32 %87, %83
  store i32 %88, ptr %86, align 4, !tbaa !8
  %89 = load i32, ptr %10, align 4, !tbaa !8
  %90 = sext i32 %89 to i64
  %91 = getelementptr inbounds [32 x i32], ptr %7, i64 0, i64 %90
  %92 = load i32, ptr %91, align 4, !tbaa !8
  %93 = load i32, ptr %11, align 4, !tbaa !8
  %94 = sext i32 %93 to i64
  %95 = getelementptr inbounds [32 x i32], ptr %7, i64 0, i64 %94
  %96 = load i32, ptr %95, align 4, !tbaa !8
  %97 = xor i32 %96, %92
  store i32 %97, ptr %95, align 4, !tbaa !8
  %98 = load i32, ptr %11, align 4, !tbaa !8
  %99 = sext i32 %98 to i64
  %100 = getelementptr inbounds [32 x i32], ptr %7, i64 0, i64 %99
  %101 = load i32, ptr %100, align 4, !tbaa !8
  %102 = load i32, ptr %10, align 4, !tbaa !8
  %103 = sext i32 %102 to i64
  %104 = getelementptr inbounds [32 x i32], ptr %7, i64 0, i64 %103
  %105 = load i32, ptr %104, align 4, !tbaa !8
  %106 = xor i32 %105, %101
  store i32 %106, ptr %104, align 4, !tbaa !8
  call void @llvm.lifetime.end.p0(i64 4, ptr %11) #12
  call void @llvm.lifetime.end.p0(i64 4, ptr %10) #12
  br label %107

107:                                              ; preds = %50
  %108 = load i32, ptr %4, align 4, !tbaa !8
  %109 = add nsw i32 %108, 2
  store i32 %109, ptr %4, align 4, !tbaa !8
  br label %33, !llvm.loop !84

110:                                              ; preds = %48
  %111 = load ptr, ptr %3, align 8, !tbaa !19
  call void @Vec_IntFree(ptr noundef %111)
  call void @llvm.lifetime.end.p0(i64 4, ptr %9) #12
  call void @llvm.lifetime.end.p0(i64 128, ptr %8) #12
  call void @llvm.lifetime.end.p0(i64 128, ptr %7) #12
  call void @llvm.lifetime.end.p0(i64 4, ptr %6) #12
  call void @llvm.lifetime.end.p0(i64 4, ptr %5) #12
  call void @llvm.lifetime.end.p0(i64 4, ptr %4) #12
  call void @llvm.lifetime.end.p0(i64 8, ptr %3) #12
  call void @llvm.lifetime.end.p0(i64 4, ptr %2) #12
  call void @llvm.lifetime.end.p0(i64 4, ptr %1) #12
  ret void
}