; Function Attrs: nounwind uwtable
define void @Abc_GenChaseTest() local_unnamed_addr #3 {
  %1 = alloca [32 x i32], align 16
  %2 = alloca [32 x i32], align 16
  %3 = tail call ptr @Abc_GenChasePairs(i32 noundef 4, i32 noundef 2)
  call void @llvm.lifetime.start.p0(i64 128, ptr nonnull %1) #24
  call void @llvm.lifetime.start.p0(i64 128, ptr nonnull %2) #24
  br label %7

.preheader:                                       ; preds = %7
  %4 = getelementptr i8, ptr %3, i64 4
  %.val = load i32, ptr %4, align 4, !tbaa !14
  %5 = icmp sgt i32 %.val, 1
  %6 = getelementptr i8, ptr %3, i64 8
  %.val36 = load ptr, ptr %6, align 8, !tbaa !18
  br i1 %5, label %.lr.ph, label %.critedge

7:                                                ; preds = %0, %7
  %indvars.iv = phi i64 [ 0, %0 ], [ %indvars.iv.next, %7 ]
  %8 = getelementptr inbounds nuw [32 x i32], ptr %2, i64 0, i64 %indvars.iv
  %9 = trunc nuw nsw i64 %indvars.iv to i32
  store i32 %9, ptr %8, align 4, !tbaa !7
  %10 = getelementptr inbounds nuw [32 x i32], ptr %1, i64 0, i64 %indvars.iv
  store i32 %9, ptr %10, align 4, !tbaa !7
  %indvars.iv.next = add nuw nsw i64 %indvars.iv, 1
  %exitcond.not = icmp eq i64 %indvars.iv.next, 4
  br i1 %exitcond.not, label %.preheader, label %7, !llvm.loop !69

.lr.ph:                                           ; preds = %.preheader, %Abc_GenChasePrint.exit
  %indvars.iv41 = phi i64 [ %indvars.iv.next42, %Abc_GenChasePrint.exit ], [ 0, %.preheader ]
  %.03338 = phi i32 [ %24, %Abc_GenChasePrint.exit ], [ 0, %.preheader ]
  %11 = or disjoint i64 %indvars.iv41, 1
  %12 = getelementptr inbounds nuw i32, ptr %.val36, i64 %indvars.iv41
  %13 = load i32, ptr %12, align 4, !tbaa !7
  %14 = getelementptr inbounds nuw i32, ptr %.val36, i64 %11
  %15 = load i32, ptr %14, align 4, !tbaa !7
  %16 = tail call i32 (ptr, ...) @printf(ptr noundef nonnull dereferenceable(1) @.str.6, i32 noundef %.03338)
  br label %.lr.ph.i

.lr.ph.i:                                         ; preds = %.lr.ph.i, %.lr.ph
  %indvars.iv.i = phi i64 [ 4, %.lr.ph ], [ %indvars.iv.next.i, %.lr.ph.i ]
  %indvars.iv.next.i = add nsw i64 %indvars.iv.i, -1
  %17 = getelementptr inbounds i32, ptr %1, i64 %indvars.iv.next.i
  %18 = load i32, ptr %17, align 4, !tbaa !7
  %19 = tail call i32 (ptr, ...) @printf(ptr noundef nonnull dereferenceable(1) @.str.7, i32 noundef %18)
  %.not.not.i = icmp samesign ugt i64 %indvars.iv.next.i, 2
  br i1 %.not.not.i, label %.lr.ph.i, label %._crit_edge.i, !llvm.loop !67

._crit_edge.i:                                    ; preds = %.lr.ph.i
  %putchar.i = tail call i32 @putchar(i32 32)
  br label %.lr.ph18.i

.lr.ph18.i:                                       ; preds = %.lr.ph18.i, %._crit_edge.i
  %indvars.iv21.i = phi i64 [ 2, %._crit_edge.i ], [ %indvars.iv.next22.i, %.lr.ph18.i ]
  %indvars.iv.next22.i = add nsw i64 %indvars.iv21.i, -1
  %20 = getelementptr inbounds nuw i32, ptr %1, i64 %indvars.iv.next22.i
  %21 = load i32, ptr %20, align 4, !tbaa !7
  %22 = tail call i32 (ptr, ...) @printf(ptr noundef nonnull dereferenceable(1) @.str.7, i32 noundef %21)
  %23 = icmp samesign ugt i64 %indvars.iv21.i, 1
  br i1 %23, label %.lr.ph18.i, label %Abc_GenChasePrint.exit, !llvm.loop !68

Abc_GenChasePrint.exit:                           ; preds = %.lr.ph18.i
  %24 = add nuw nsw i32 %.03338, 1
  %25 = tail call i32 (ptr, ...) @printf(ptr noundef nonnull dereferenceable(1) @.str.9, i32 noundef %13, i32 noundef %15)
  %26 = sext i32 %13 to i64
  %27 = getelementptr inbounds [32 x i32], ptr %2, i64 0, i64 %26
  %28 = load i32, ptr %27, align 4, !tbaa !7
  %29 = sext i32 %15 to i64
  %30 = getelementptr inbounds [32 x i32], ptr %2, i64 0, i64 %29
  %31 = load i32, ptr %30, align 4, !tbaa !7
  %32 = sext i32 %28 to i64
  %33 = getelementptr inbounds [32 x i32], ptr %1, i64 0, i64 %32
  %34 = load i32, ptr %33, align 4, !tbaa !7
  %35 = sext i32 %34 to i64
  %36 = getelementptr inbounds [32 x i32], ptr %2, i64 0, i64 %35
  store i32 %31, ptr %36, align 4, !tbaa !7
  %37 = sext i32 %31 to i64
  %38 = getelementptr inbounds [32 x i32], ptr %1, i64 0, i64 %37
  %39 = load i32, ptr %38, align 4, !tbaa !7
  %40 = sext i32 %39 to i64
  %41 = getelementptr inbounds [32 x i32], ptr %2, i64 0, i64 %40
  store i32 %28, ptr %41, align 4, !tbaa !7
  %42 = xor i32 %39, %34
  store i32 %42, ptr %33, align 4, !tbaa !7
  %43 = load i32, ptr %38, align 4, !tbaa !7
  %44 = xor i32 %43, %42
  store i32 %44, ptr %38, align 4, !tbaa !7
  %45 = load i32, ptr %33, align 4, !tbaa !7
  %46 = xor i32 %45, %44
  store i32 %46, ptr %33, align 4, !tbaa !7
  %indvars.iv.next42 = add nuw nsw i64 %indvars.iv41, 2
  %47 = trunc i64 %indvars.iv.next42 to i32
  %48 = or disjoint i32 %47, 1
  %49 = icmp slt i32 %48, %.val
  br i1 %49, label %.lr.ph, label %.critedge, !llvm.loop !70

.critedge:                                        ; preds = %Abc_GenChasePrint.exit, %.preheader
  %.not.i = icmp eq ptr %.val36, null
  br i1 %.not.i, label %Vec_IntFree.exit, label %50

50:                                               ; preds = %.critedge
  tail call void @free(ptr noundef nonnull %.val36) #24
  br label %Vec_IntFree.exit

Vec_IntFree.exit:                                 ; preds = %.critedge, %50
  tail call void @free(ptr noundef nonnull %3) #24
  call void @llvm.lifetime.end.p0(i64 128, ptr nonnull %2) #24
  call void @llvm.lifetime.end.p0(i64 128, ptr nonnull %1) #24
  ret void
}